     1                                 %line 1+1 ast8main.asm
     2                                 
     3                                 
     4                                 
     5                                 
     6                                 
     7                                 
     8                                 
     9                                 
    10                                 
    11                                 
    12                                 
    13                                 
    14                                 
    15                                 
    16                                 
    17                                 
    18                                 
    19                                 
    20                                 
    21                                 
    22                                 
    23                                 
    24                                 
    25                                 
    26                                 
    27                                 
    28                                 [section .data]
    29                                 
    30                                 
    31                                 
    32                                 
    33                                 TRUE equ 1
    34                                 FALSE equ 0
    35                                 
    36                                 EXIT_SUCCESS equ 0
    37                                 
    38                                 STDIN equ 0
    39                                 STDOUT equ 1
    40                                 STDERR equ 2
    41                                 
    42                                 SYS_read equ 0
    43                                 SYS_write equ 1
    44                                 SYS_open equ 2
    45                                 SYS_close equ 3
    46                                 SYS_fork equ 57
    47                                 SYS_exit equ 60
    48                                 SYS_creat equ 85
    49                                 SYS_time equ 201
    50                                 
    51                                 LF equ 10
    52                                 NULL equ 0
    53                                 ESC equ 27
    54                                 
    55                                 
    56                                 
    57                                 
    58 00000000 5E060000B60D00003E-    xList_1 dd 1630, 3510, 2110, -7410, 4660
    59 00000000 0800000EE3FFFF3412-
    60 00000000 0000               
    61 00000014 E2FAFFFFAC120000E2-     dd -1310, 4780, 1250, 5370, 2220
    62 00000014 040000FA140000AC08-
    63 00000014 0000               
    64 00000028 4A0B0000700D0000D0-     dd 2890, 3440, -3120
    65 00000028 F3FFFF             
    66 00000034 E2490600A61A08005D-    yList_1 dd 412130, 531110, 613213, -92140, 741160
    67 00000034 5B09001498FEFF284F-
    68 00000034 0B00               
    69 00000048 56940600A64508000E-     dd 431190, 542118, 731150, 631170, 951120
    70 00000048 280B0082A109005083-
    71 00000048 0E00               
    72 0000005C B2D0FFFF7CAE0C0070-     dd -12110, 831100, 921200
    73 0000005C 0E0E00             
    74 00000068 0D000000               len_1 dd 13
    75 0000006C 00000000               xMin_1 dd 0
    76 00000070 00000000               xMed_1 dd 0
    77 00000074 00000000               xMax_1 dd 0
    78 00000078 00000000               xSum_1 dd 0
    79 0000007C 00000000               xAve_1 dd 0
    80 00000080 00000000               yMin_1 dd 0
    81 00000084 00000000               yMed_1 dd 0
    82 00000088 00000000               yMax_1 dd 0
    83 0000008C 00000000               ySum_1 dd 0
    84 00000090 00000000               yAve_1 dd 0
    85 00000094 00000000               b0_1 dd 0
    86 00000098 00000000               b1_1 dd 0
    87                                 
    88                                 
    89 0000009C 273000000F28000029-    xList_2 dd 12327, 10255, 5417, 12315, 1361
    90 0000009C 1500001B3000005105-
    91 0000009C 0000               
    92 000000B0 E8030000C404000062-     dd 1000, 1220, 1122, 3124, 9026
    93 000000B0 040000340C00004223-
    94 000000B0 0000               
    95 000000C4 69040000B52F000081-     dd 1129, 12213, -3455, 1535, 5437
    96 000000C4 F2FFFFFF0500003D15-
    97 000000C4 0000               
    98 000000D8 1DFDFFFF6528000007-     dd -739, 10341, 1543, 1345, 10349
    99 000000D8 060000410500006D28-
   100 000000D8 0000               
   101 000000EC 690800000F090000A5-     dd 2153, 2319, -12123, 13217, 1459
   102 000000EC D0FFFFA1330000B305-
   103 000000EC 0000               
   104 00000100 982C00009F0100000F-     dd 11416, 415, 1551, 6567, -10669
   105 00000100 060000A719000053D6-
   106 00000100 FFFF               
   107 00000114 D0FAFFFF7634000078-     dd -1328, 13430, 13432, 2333, 1
   108 00000114 3400001D0900000100-
   109 00000114 0000               
   110 00000128 52010000F410000042-     dd 338, 4340, -4542, 7644, 6746
   111 00000128 EEFFFFDC1D00005A1A-
   112 00000128 0000               
   113 0000013C 29050000610D0000AB-     dd 1321, 3425, 14251, 14113, 14519
   114 0000013C 37000021370000B738-
   115 0000013C 0000               
   116 00000150 A1100000973A0000AD-     dd 4257, 14999, 1453, 165, 5679
   117 00000150 050000A50000002F16-
   118 00000150 0000               
   119 00000164 C7B601002FC9070019-    yList_2 dd 112327, 510255, 315417, 612315, 511361
   120 00000164 D00400DB57090081CD-
   121 00000164 0700               
   122 00000178 E33A03004A3C0500A7-     dd 211683, 343114, 755111, -44128, -3112
   123 00000178 850B00A053FFFFD8F3-
   124 00000178 FFFF               
   125 0000018C 1EC004009BA9FFFFB9-     dd 311326, -22117, -77127, 749127, 855184
   126 0000018C D2FEFF476E0B00900C-
   127 0000018C 0D00               
   128 000001A0 6AC9FFFF56380500ED-     dd -13974, 342102, 934125, -26126, 751129
   129 000001A0 400E00F299FFFF1976-
   130 000001A0 0B00               
   131 000001B4 64D901008BB203000D-     dd 121188, 242315, 313101, -15108, -3115
   132 000001B4 C70400FCC4FFFFD5F3-
   133 000001B4 FFFF               
   134 000001C8 8AD4FFFF0DA6030051-     dd -11126, 239117, 641105, 899110, 765114
   135 000001C8 C8090026B80D00BAAC-
   136 000001C8 0B00               
   137 000001DC 645108005FCC0900DA-     dd 545124, 642143, -36134, 976112, 646103
   138 000001DC 72FFFFF0E40E00D7DB-
   139 000001DC 0900               
   140 000001F0 14A30900A04BFFFF00-     dd 631572, -46176, 755456, -4165, 535156
   141 000001F0 870B00BBEFFFFF742A-
   142 000001F0 0800               
   143 00000204 25AA0B00D42F0B0097-     dd 764453, 733140, 855191, 454168, -33162
   144 00000204 0C0D0018EE0600767E-
   145 00000204 FFFF               
   146 00000218 EE91080093B20C00E1-     dd 561646, 832147, -27167, 679177, 645144
   147 00000218 95FFFF095D0A0018D8-
   148 00000218 0900               
   149 0000022C 32000000               len_2 dd 50
   150 00000230 00000000               xMin_2 dd 0
   151 00000234 00000000               xMed_2 dd 0
   152 00000238 00000000               xMax_2 dd 0
   153 0000023C 00000000               xSum_2 dd 0
   154 00000240 00000000               xAve_2 dd 0
   155 00000244 00000000               yMin_2 dd 0
   156 00000248 00000000               yMed_2 dd 0
   157 0000024C 00000000               yMax_2 dd 0
   158 00000250 00000000               ySum_2 dd 0
   159 00000254 00000000               yAve_2 dd 0
   160 00000258 00000000               b0_2 dd 0
   161 0000025C 00000000               b1_2 dd 0
   162                                 
   163                                 
   164 00000260 1C240000521100004B-    xList_3 dd 9244, 4434, 7243, 9261, 5436
   165 00000260 1C00002D2400003C15-
   166 00000260 0000               
   167 00000274 5911000047F7FFFFA6-     dd 4441, -2233, -6234, 6223, -6263
   168 00000274 E7FFFF4F18000089E7-
   169 00000274 FFFF               
   170 00000288 C2040000131D0000A4-     dd 1218, 7443, 8612, 1210, 5310
   171 00000288 210000BA040000BE14-
   172 00000288 0000               
   173 0000029C 80EFFFFFC30800005A-     dd -4224, 2243, 6234, 6212, -6203
   174 0000029C 18000044180000C5E7-
   175 0000029C FFFF               
   176 000002B0 551C0000F4F2FFFF55-     dd 7253, -3340, -5291, 5468, 3362
   177 000002B0 EBFFFF5C150000220D-
   178 000002B0 0000               
   179 000002C4 43050000E30000002F-     dd 1347, 227, 4399, 1297, -1229
   180 000002C4 1100001105000033FB-
   181 000002C4 FFFF               
   182 000002D8 670500007A0D000051-     dd 1383, 3450, 5201, 5228, 3315
   183 000002D8 1400006C140000F30C-
   184 000002D8 0000               
   185 000002EC 930600002A0C000009-     dd 1683, 3114, -5111, 4128, 3112
   186 000002EC ECFFFF20100000280C-
   187 000002EC 0000               
   188 00000300 D2FAFFFF45080000D7-     dd -1326, 2117, 7127, 9127, 5184
   189 00000300 1B0000A72300004014-
   190 00000300 0000               
   191 00000314 860F0000660000001D-     dd 3974, 102, 4125, 6126, -1129
   192 00000314 100000EE17000097FB-
   193 00000314 FFFF               
   194 00000328 A4040000DFF3FFFF65-     dd 1188, -3105, 101, 5108, 3115
   195 00000328 000000F41300002B0C-
   196 00000328 0000               
   197 0000033C 660400009D230000AF-     dd 1126, 9117, -1105, 9110, 114
   198 0000033C FBFFFF962300007200-
   199 0000033C 0000               
   200 00000350 7C0000005F080000F6-     dd 124, 2143, 6134, 6112, 6103
   201 00000350 170000E0170000D717-
   202 00000350 0000               
   203 00000364 24060000201800009C-     dd 1572, 6176, 156, 4165, -5156
   204 00000364 00000045100000DCEB-
   205 00000364 FFFF               
   206 00000378 53FAFFFFBCF3FFFFB9-     dd -1453, -3140, -5191, 4168, 3162
   207 00000378 EBFFFF481000005A0C-
   208 00000378 0000               
   209 0000038C 6E06000063080000FF-     dd 1646, 2147, 7167, 9177, -5144
   210 0000038C 1B0000D9230000E8EB-
   211 0000038C FFFF               
   212 000003A0 3F0700000C14000011-     dd 1855, 5132, 7185, 2149, 134
   213 000003A0 1C0000650800008600-
   214 000003A0 0000               
   215 000003B4 E4060000AC000000B1-     dd 1764, 172, -4175, 6162, 8172
   216 000003B4 EFFFFF12180000EC1F-
   217 000003B4 0000               
   218 000003C8 6DF9FFFF960000000B-     dd -1683, 150, 5131, 5178, -7185
   219 000003C8 1400003A140000EFE3-
   220 000003C8 FFFF               
   221 000003DC BA05000089F7FFFF09-     dd 1466, -2167, 7177, 9177, 5164
   222 000003DC 1C0000D92300002C14-
   223 000003DC 0000               
   224 000003F0 F82A0000C404000062-    yList_3 dd 11000, 1220, 1122, 3124, 999026
   225 000003F0 040000340C0000723E-
   226 000003F0 0F00               
   227 00000404 29D90100B52F000081-     dd 121129, 12213, -3455, 311535, 5437
   228 00000404 F2FFFFEFC004003D15-
   229 00000404 0000               
   230 00000418 1DFDFFFF6528000017-     dd -739, 10341, 11543, 10345, 10349
   231 00000418 2D0000692800006D28-
   232 00000418 0000               
   233 0000042C B93C03000F090000A5-     dd 212153, 2319, -12123, 13217, 13459
   234 0000042C D0FFFFA13300009334-
   235 0000042C 0000               
   236 00000440 78C004009F01000037-     dd 311416, 415, 10551, 426567, -10669
   237 00000440 2900004782060053D6-
   238 00000440 FFFF               
   239 00000454 D0FAFFFF76340000B8-     dd -1328, 13430, 213432, 2333, 1
   240 00000454 4103001D0900000100-
   241 00000454 0000               
   242 00000468 52010000E4CB040042-     dd 338, 314340, -4542, 7644, 6746
   243 00000468 EEFFFFDC1D00005A1A-
   244 00000468 0000               
   245 0000047C 19C00400610D0000AB-     dd 311321, 3425, 14251, 14113, 14519
   246 0000047C 37000021370000B738-
   247 0000047C 0000               
   248 00000490 A1100000973A00009D-     dd 4257, 14999, 311453, 42165, 5679
   249 00000490 C00400B5A400002F16-
   250 00000490 0000               
   251 000004A4 774608004F35030039-     dd 542327, 210255, 15417, 12315, 11361
   252 000004A4 3C00001B300000612C-
   253 000004A4 0000               
   254 000004B8 B33605002A0C0000F7-     dd 341683, 3114, 5111, -4128, -3112
   255 000004B8 130000E0EFFFFFD8F3-
   256 000004B8 FFFF               
   257 000004CC D2FAFFFFBBF7FFFF29-     dd -1326, -2117, -7127, 49127, 315184
   258 000004CC E4FFFFE7BF000030CF-
   259 000004CC 0400               
   260 000004E0 AC260800210C000065-     dd 534188, 3105, 101, -5108, -3115
   261 000004E0 0000000CECFFFFD5F3-
   262 000004E0 FFFF               
   263 000004F4 9AFBFFFF9D23000051-     dd -1126, 9117, 1105, 119110, 114
   264 000004F4 04000046D101007200-
   265 000004F4 0000               
   266 00000508 24140D005F0800000A-     dd 857124, 2143, -6134, 6112, 6103
   267 00000508 E8FFFFE0170000D717-
   268 00000508 0000               
   269 0000051C 24060000E0E7FFFF9C-     dd 1572, -6176, 156, -4165, 315156
   270 0000051C 000000BBEFFFFF14CF-
   271 0000051C 0400               
   272 00000530 FDFD0C005433000047-     dd 851453, 13140, 5191, 4168, -3162
   273 00000530 14000048100000A6F3-
   274 00000530 FFFF               
   275 00000544 DE17010053C3040001-     dd 71646, 312147, -7167, 119177, 5144
   276 00000544 E4FFFF89D101001814-
   277 00000544 0000               
   278 00000558 C1F8FFFFF4EBFFFF11-     dd -1855, -5132, 7185, 149, 134
   279 00000558 1C0000950000008600-
   280 00000558 0000               
   281 0000056C 24F60700940400004F-     dd 521764, 1172, 4175, 6162, -8172
   282 0000056C 1000001218000014E0-
   283 0000056C FFFF               
   284 00000580 64000000               len_3 dd 100
   285 00000584 00000000               xMin_3 dd 0
   286 00000588 00000000               xMed_3 dd 0
   287 0000058C 00000000               xMax_3 dd 0
   288 00000590 00000000               xSum_3 dd 0
   289 00000594 00000000               xAve_3 dd 0
   290 00000598 00000000               yMin_3 dd 0
   291 0000059C 00000000               yMed_3 dd 0
   292 000005A0 00000000               yMax_3 dd 0
   293 000005A4 00000000               ySum_3 dd 0
   294 000005A8 00000000               yAve_3 dd 0
   295 000005AC 00000000               b0_3 dd 0
   296 000005B0 00000000               b1_3 dd 0
   297                                 
   298                                 
   299                                 
   300                                 
   301                                 [extern shellSort]
   302                                 %line 170+0 ast8main.asm
   303                                 [extern basicStats]
   304                                 [extern linearRegression]
   305                                 %line 171+1 ast8main.asm
   306                                 
   307                                 [section .text]
   308                                 [global _start]
   309                                 _start:
   310                                 
   311                                 
   312                                 
   313                                 
   314                                 
   315 00000000 48C7C7[00000000]        mov rdi, xList_1
   316 00000007 8B3425[00000000]        mov esi, dword [len_1]
   317 0000000E E8(F6FFFFFF)            call shellSort
   318                                 
   319                                 
   320 00000013 48C7C7[00000000]        mov rdi, yList_1
   321 0000001A 8B3425[00000000]        mov esi, dword [len_1]
   322 00000021 E8(F6FFFFFF)            call shellSort
   323                                 
   324                                 
   325 00000026 48C7C7[00000000]        mov rdi, xList_1
   326 0000002D 8B3425[00000000]        mov esi, dword [len_1]
   327 00000034 48C7C2[00000000]        mov rdx, xMin_1
   328 0000003B 48C7C1[00000000]        mov rcx, xMed_1
   329 00000042 49C7C0[00000000]        mov r8, xMax_1
   330 00000049 49C7C1[00000000]        mov r9, xSum_1
   331 00000050 48C7C0[00000000]        mov rax, xAve_1
   332 00000057 50                      push rax
   333 00000058 E8(F6FFFFFF)            call basicStats
   334 0000005D 4883C408                add rsp, 8
   335                                 
   336                                 
   337 00000061 48C7C7[00000000]        mov rdi, yList_1
   338 00000068 8B3425[00000000]        mov esi, dword [len_1]
   339 0000006F 48C7C2[00000000]        mov rdx, yMin_1
   340 00000076 48C7C1[00000000]        mov rcx, yMed_1
   341 0000007D 49C7C0[00000000]        mov r8, yMax_1
   342 00000084 49C7C1[00000000]        mov r9, ySum_1
   343 0000008B 48C7C0[00000000]        mov rax, yAve_1
   344 00000092 50                      push rax
   345 00000093 E8(F6FFFFFF)            call basicStats
   346 00000098 4883C408                add rsp, 8
   347                                 
   348                                 
   349 0000009C 48C7C7[00000000]        mov rdi, xList_1
   350 000000A3 48C7C6[00000000]        mov rsi, yList_1
   351 000000AA 8B1425[00000000]        mov edx, dword [len_1]
   352 000000B1 8B0C25[00000000]        mov ecx, dword [xAve_1]
   353 000000B8 448B0425[00000000]      mov r8d, dword [yAve_1]
   354 000000C0 49C7C1[00000000]        mov r9, b0_1
   355 000000C7 48C7C0[00000000]        mov rax, b1_1
   356 000000CE 50                      push rax
   357 000000CF E8(F6FFFFFF)            call linearRegression
   358 000000D4 4883C408                add rsp, 8
   359                                 
   360                                 
   361                                 
   362                                 
   363                                 
   364 000000D8 48C7C7[00000000]        mov rdi, xList_2
   365 000000DF 8B3425[00000000]        mov esi, dword [len_2]
   366 000000E6 E8(F6FFFFFF)            call shellSort
   367                                 
   368                                 
   369 000000EB 48C7C7[00000000]        mov rdi, yList_2
   370 000000F2 8B3425[00000000]        mov esi, dword [len_2]
   371 000000F9 E8(F6FFFFFF)            call shellSort
   372                                 
   373                                 
   374 000000FE 48C7C7[00000000]        mov rdi, xList_2
   375 00000105 8B3425[00000000]        mov esi, dword [len_2]
   376 0000010C 48C7C2[00000000]        mov rdx, xMin_2
   377 00000113 48C7C1[00000000]        mov rcx, xMed_2
   378 0000011A 49C7C0[00000000]        mov r8, xMax_2
   379 00000121 49C7C1[00000000]        mov r9, xSum_2
   380 00000128 48C7C0[00000000]        mov rax, xAve_2
   381 0000012F 50                      push rax
   382 00000130 E8(F6FFFFFF)            call basicStats
   383 00000135 4883C408                add rsp, 8
   384                                 
   385                                 
   386 00000139 48C7C7[00000000]        mov rdi, yList_2
   387 00000140 8B3425[00000000]        mov esi, dword [len_2]
   388 00000147 48C7C2[00000000]        mov rdx, yMin_2
   389 0000014E 48C7C1[00000000]        mov rcx, yMed_2
   390 00000155 49C7C0[00000000]        mov r8, yMax_2
   391 0000015C 49C7C1[00000000]        mov r9, ySum_2
   392 00000163 48C7C0[00000000]        mov rax, yAve_2
   393 0000016A 50                      push rax
   394 0000016B E8(F6FFFFFF)            call basicStats
   395 00000170 4883C408                add rsp, 8
   396                                 
   397                                 
   398 00000174 48C7C7[00000000]        mov rdi, xList_2
   399 0000017B 48C7C6[00000000]        mov rsi, yList_2
   400 00000182 8B1425[00000000]        mov edx, dword [len_2]
   401 00000189 8B0C25[00000000]        mov ecx, dword [xAve_2]
   402 00000190 448B0425[00000000]      mov r8d, dword [yAve_2]
   403 00000198 49C7C1[00000000]        mov r9, b0_2
   404 0000019F 48C7C0[00000000]        mov rax, b1_2
   405 000001A6 50                      push rax
   406 000001A7 E8(F6FFFFFF)            call linearRegression
   407 000001AC 4883C408                add rsp, 8
   408                                 
   409                                 
   410                                 
   411                                 
   412                                 
   413 000001B0 48C7C7[00000000]        mov rdi, xList_3
   414 000001B7 8B3425[00000000]        mov esi, dword [len_3]
   415 000001BE E8(F6FFFFFF)            call shellSort
   416 000001C3 4883C410                add rsp, 16
   417                                 
   418                                 
   419 000001C7 48C7C7[00000000]        mov rdi, yList_3
   420 000001CE 8B3425[00000000]        mov esi, dword [len_3]
   421 000001D5 E8(F6FFFFFF)            call shellSort
   422                                 
   423                                 
   424 000001DA 48C7C7[00000000]        mov rdi, xList_3
   425 000001E1 8B3425[00000000]        mov esi, dword [len_3]
   426 000001E8 48C7C2[00000000]        mov rdx, xMin_3
   427 000001EF 48C7C1[00000000]        mov rcx, xMed_3
   428 000001F6 49C7C0[00000000]        mov r8, xMax_3
   429 000001FD 49C7C1[00000000]        mov r9, xSum_3
   430 00000204 48C7C0[00000000]        mov rax, xAve_3
   431 0000020B 50                      push rax
   432 0000020C E8(F6FFFFFF)            call basicStats
   433 00000211 4883C408                add rsp, 8
   434                                 
   435                                 
   436 00000215 48C7C7[00000000]        mov rdi, yList_3
   437 0000021C 8B3425[00000000]        mov esi, dword [len_3]
   438 00000223 48C7C2[00000000]        mov rdx, yMin_3
   439 0000022A 48C7C1[00000000]        mov rcx, yMed_3
   440 00000231 49C7C0[00000000]        mov r8, yMax_3
   441 00000238 49C7C1[00000000]        mov r9, ySum_3
   442 0000023F 48C7C0[00000000]        mov rax, yAve_3
   443 00000246 50                      push rax
   444 00000247 E8(F6FFFFFF)            call basicStats
   445 0000024C 4883C408                add rsp, 8
   446                                 
   447                                 
   448 00000250 48C7C7[00000000]        mov rdi, xList_3
   449 00000257 48C7C6[00000000]        mov rsi, yList_3
   450 0000025E 8B1425[00000000]        mov edx, dword [len_3]
   451 00000265 8B0C25[00000000]        mov ecx, dword [xAve_3]
   452 0000026C 448B0425[00000000]      mov r8d, dword [yAve_3]
   453 00000274 49C7C1[00000000]        mov r9, b0_3
   454 0000027B 48C7C0[00000000]        mov rax, b1_3
   455 00000282 50                      push rax
   456 00000283 E8(F6FFFFFF)            call linearRegression
   457 00000288 4883C408                add rsp, 8
   458                                 
   459                                 
   460                                 
   461                                 
   462                                 last:
   463 0000028C 48C7C03C000000          mov rax, SYS_exit
   464 00000293 48C7C700000000          mov rdi, EXIT_SUCCESS
   465 0000029A 0F05                    syscall
   466                                 
